target datalayout = "e-m:e-p270:32:32-p271:32:32-p272:64:64-i64:64-i128:128-f80:128-n8:16:32:64-S128"
target triple = "x86_64-pc-linux-gnu"

%"struct.duckdb_libpgquery::pg_parser_state_str" = type { i32, i32, [8192 x i8], i64, i64, ptr, i64 }

@_ZTISt9bad_alloc = external constant ptr
@_ZTVSt9bad_alloc = available_externally unnamed_addr constant { [5 x ptr] } { [5 x ptr] [ptr null, ptr @_ZTISt9bad_alloc, ptr @_ZNSt9bad_allocD1Ev, ptr @_ZNSt9bad_allocD0Ev, ptr @_ZNKSt9bad_alloc4whatEv] }, align 8
@_ZTVSt9exception = available_externally unnamed_addr constant { [5 x ptr] } { [5 x ptr] [ptr null, ptr @_ZTISt9exception, ptr @_ZNSt9exceptionD1Ev, ptr @_ZNSt9exceptionD0Ev, ptr @_ZNKSt9exception4whatEv] }, align 8

; Function Attrs: mustprogress nounwind uwtable
define linkonce_odr void @_ZNSt9exceptionC2Ev(ptr noundef nonnull align 8 dereferenceable(8) %0) unnamed_addr #6 comdat align 2 {
  %2 = alloca ptr, align 8
  store ptr %0, ptr %2, align 8, !tbaa !35
  %3 = load ptr, ptr %2, align 8
  store ptr getelementptr inbounds inrange(-16, 24) ({ [5 x ptr] }, ptr @_ZTVSt9exception, i32 0, i32 0, i32 2), ptr %3, align 8, !tbaa !24
  ret void
}

; Function Attrs: mustprogress nounwind uwtable
define linkonce_odr void @_ZNSt9bad_allocC2Ev(ptr noundef nonnull align 8 dereferenceable(8) %0) unnamed_addr #6 comdat align 2 {
  %2 = alloca ptr, align 8
  store ptr %0, ptr %2, align 8, !tbaa !22
  %3 = load ptr, ptr %2, align 8
  call void @_ZNSt9exceptionC2Ev(ptr noundef nonnull align 8 dereferenceable(8) %3) #13
  store ptr getelementptr inbounds inrange(-16, 24) ({ [5 x ptr] }, ptr @_ZTVSt9bad_alloc, i32 0, i32 0, i32 2), ptr %3, align 8, !tbaa !24
  ret void
}

; Function Attrs: mustprogress uwtable
define internal void @_ZN17duckdb_libpgqueryL12allocate_newEPNS_19pg_parser_state_strEm(ptr noundef %0, i64 noundef %1) #0 {
  %3 = alloca ptr, align 8
  %4 = alloca i64, align 8
  %5 = alloca i64, align 8
  %6 = alloca ptr, align 8
  %7 = alloca ptr, align 8
  store ptr %0, ptr %3, align 8, !tbaa !16
  store i64 %1, ptr %4, align 8, !tbaa !3
  %8 = load ptr, ptr %3, align 8, !tbaa !16
  %9 = getelementptr inbounds nuw %"struct.duckdb_libpgquery::pg_parser_state_str", ptr %8, i32 0, i32 4
  %10 = load i64, ptr %9, align 8, !tbaa !13
  %11 = load ptr, ptr %3, align 8, !tbaa !16
  %12 = getelementptr inbounds nuw %"struct.duckdb_libpgquery::pg_parser_state_str", ptr %11, i32 0, i32 6
  %13 = load i64, ptr %12, align 8, !tbaa !18
  %14 = icmp uge i64 %10, %13
  br i1 %14, label %15, label %48

15:                                               ; preds = %2
  call void @llvm.lifetime.start.p0(i64 8, ptr %5) #13
  %16 = load ptr, ptr %3, align 8, !tbaa !16
  %17 = getelementptr inbounds nuw %"struct.duckdb_libpgquery::pg_parser_state_str", ptr %16, i32 0, i32 6
  %18 = load i64, ptr %17, align 8, !tbaa !18
  %19 = mul i64 %18, 2
  store i64 %19, ptr %5, align 8, !tbaa !3
  call void @llvm.lifetime.start.p0(i64 8, ptr %6) #13
  %20 = load i64, ptr %5, align 8, !tbaa !3
  %21 = mul i64 8, %20
  %22 = call noalias ptr @malloc(i64 noundef %21) #14
  store ptr %22, ptr %6, align 8, !tbaa !19
  %23 = load ptr, ptr %6, align 8, !tbaa !19
  %24 = icmp ne ptr %23, null
  br i1 %24, label %27, label %25

25:                                               ; preds = %15
  %26 = call ptr @__cxa_allocate_exception(i64 8) #13
  call void @_ZNSt9bad_allocC2Ev(ptr noundef nonnull align 8 dereferenceable(8) %26) #13
  call void @__cxa_throw(ptr %26, ptr @_ZTISt9bad_alloc, ptr @_ZNSt9bad_allocD1Ev) #15
  unreachable

27:                                               ; preds = %15
  %28 = load ptr, ptr %6, align 8, !tbaa !19
  %29 = load i64, ptr %5, align 8, !tbaa !3
  %30 = mul i64 8, %29
  call void @llvm.memset.p0.i64(ptr align 8 %28, i8 0, i64 %30, i1 false)
  %31 = load ptr, ptr %6, align 8, !tbaa !19
  %32 = load ptr, ptr %3, align 8, !tbaa !16
  %33 = getelementptr inbounds nuw %"struct.duckdb_libpgquery::pg_parser_state_str", ptr %32, i32 0, i32 5
  %34 = load ptr, ptr %33, align 8, !tbaa !12
  %35 = load ptr, ptr %3, align 8, !tbaa !16
  %36 = getelementptr inbounds nuw %"struct.duckdb_libpgquery::pg_parser_state_str", ptr %35, i32 0, i32 6
  %37 = load i64, ptr %36, align 8, !tbaa !18
  %38 = mul i64 %37, 8
  call void @llvm.memcpy.p0.p0.i64(ptr align 8 %31, ptr align 8 %34, i64 %38, i1 false)
  %39 = load ptr, ptr %3, align 8, !tbaa !16
  %40 = getelementptr inbounds nuw %"struct.duckdb_libpgquery::pg_parser_state_str", ptr %39, i32 0, i32 5
  %41 = load ptr, ptr %40, align 8, !tbaa !12
  call void @free(ptr noundef %41) #13
  %42 = load i64, ptr %5, align 8, !tbaa !3
  %43 = load ptr, ptr %3, align 8, !tbaa !16
  %44 = getelementptr inbounds nuw %"struct.duckdb_libpgquery::pg_parser_state_str", ptr %43, i32 0, i32 6
  store i64 %42, ptr %44, align 8, !tbaa !18
  %45 = load ptr, ptr %6, align 8, !tbaa !19
  %46 = load ptr, ptr %3, align 8, !tbaa !16
  %47 = getelementptr inbounds nuw %"struct.duckdb_libpgquery::pg_parser_state_str", ptr %46, i32 0, i32 5
  store ptr %45, ptr %47, align 8, !tbaa !12
  call void @llvm.lifetime.end.p0(i64 8, ptr %6) #13
  call void @llvm.lifetime.end.p0(i64 8, ptr %5) #13
  br label %48

48:                                               ; preds = %27, %2
  %49 = load i64, ptr %4, align 8, !tbaa !3
  %50 = icmp ult i64 %49, 10240
  br i1 %50, label %51, label %52

51:                                               ; preds = %48
  store i64 10240, ptr %4, align 8, !tbaa !3
  br label %52

52:                                               ; preds = %51, %48
  call void @llvm.lifetime.start.p0(i64 8, ptr %7) #13
  %53 = load i64, ptr %4, align 8, !tbaa !3
  %54 = call noalias ptr @malloc(i64 noundef %53) #14
  store ptr %54, ptr %7, align 8, !tbaa !14
  %55 = load ptr, ptr %7, align 8, !tbaa !14
  %56 = icmp ne ptr %55, null
  br i1 %56, label %59, label %57

57:                                               ; preds = %52
  %58 = call ptr @__cxa_allocate_exception(i64 8) #13
  call void @_ZNSt9bad_allocC2Ev(ptr noundef nonnull align 8 dereferenceable(8) %58) #13
  call void @__cxa_throw(ptr %58, ptr @_ZTISt9bad_alloc, ptr @_ZNSt9bad_allocD1Ev) #15
  unreachable

59:                                               ; preds = %52
  %60 = load ptr, ptr %7, align 8, !tbaa !14
  %61 = load ptr, ptr %3, align 8, !tbaa !16
  %62 = getelementptr inbounds nuw %"struct.duckdb_libpgquery::pg_parser_state_str", ptr %61, i32 0, i32 5
  %63 = load ptr, ptr %62, align 8, !tbaa !12
  %64 = load ptr, ptr %3, align 8, !tbaa !16
  %65 = getelementptr inbounds nuw %"struct.duckdb_libpgquery::pg_parser_state_str", ptr %64, i32 0, i32 4
  %66 = load i64, ptr %65, align 8, !tbaa !13
  %67 = getelementptr inbounds nuw ptr, ptr %63, i64 %66
  store ptr %60, ptr %67, align 8, !tbaa !14
  %68 = load ptr, ptr %3, align 8, !tbaa !16
  %69 = getelementptr inbounds nuw %"struct.duckdb_libpgquery::pg_parser_state_str", ptr %68, i32 0, i32 4
  %70 = load i64, ptr %69, align 8, !tbaa !13
  %71 = add i64 %70, 1
  store i64 %71, ptr %69, align 8, !tbaa !13
  %72 = load ptr, ptr %3, align 8, !tbaa !16
  %73 = getelementptr inbounds nuw %"struct.duckdb_libpgquery::pg_parser_state_str", ptr %72, i32 0, i32 3
  store i64 0, ptr %73, align 8, !tbaa !7
  call void @llvm.lifetime.end.p0(i64 8, ptr %7) #13
  ret void
}