; Function Attrs: mustprogress uwtable
define internal fastcc void @_ZN17duckdb_libpgqueryL12allocate_newEPNS_19pg_parser_state_strEm(ptr noundef nonnull captures(none) %0, i64 noundef range(i64 0, -7) %1) unnamed_addr #0 {
  %3 = getelementptr inbounds nuw i8, ptr %0, i64 8208
  %4 = load i64, ptr %3, align 8, !tbaa !12
  %5 = getelementptr inbounds nuw i8, ptr %0, i64 8224
  %6 = load i64, ptr %5, align 8, !tbaa !15
  %.not = icmp ult i64 %4, %6
  br i1 %.not, label %16, label %7

7:                                                ; preds = %2
  %8 = shl i64 %6, 4
  %calloc = tail call ptr @calloc(i64 1, i64 %8)
  %.not24 = icmp eq ptr %calloc, null
  br i1 %.not24, label %9, label %11

9:                                                ; preds = %7
  %10 = tail call ptr @__cxa_allocate_exception(i64 8) #24
  store ptr getelementptr inbounds nuw inrange(-16, 24) (i8, ptr @_ZTVSt9bad_alloc, i64 16), ptr %10, align 8, !tbaa !16
  tail call void @__cxa_throw(ptr nonnull %10, ptr nonnull @_ZTISt9bad_alloc, ptr nonnull @_ZNSt9bad_allocD1Ev) #25
  unreachable

11:                                               ; preds = %7
  %12 = shl i64 %6, 1
  %13 = getelementptr inbounds nuw i8, ptr %0, i64 8216
  %14 = load ptr, ptr %13, align 8, !tbaa !11
  %15 = shl i64 %6, 3
  tail call void @llvm.memcpy.p0.p0.i64(ptr nonnull align 8 %calloc, ptr align 8 %14, i64 %15, i1 false)
  tail call void @free(ptr noundef %14) #24
  store i64 %12, ptr %5, align 8, !tbaa !15
  store ptr %calloc, ptr %13, align 8, !tbaa !11
  br label %16

16:                                               ; preds = %11, %2
  %spec.store.select = tail call i64 @llvm.umax.i64(i64 %1, i64 10240)
  %17 = tail call noalias ptr @malloc(i64 noundef %spec.store.select) #26
  %.not25 = icmp eq ptr %17, null
  br i1 %.not25, label %18, label %20

18:                                               ; preds = %16
  %19 = tail call ptr @__cxa_allocate_exception(i64 8) #24
  store ptr getelementptr inbounds nuw inrange(-16, 24) (i8, ptr @_ZTVSt9bad_alloc, i64 16), ptr %19, align 8, !tbaa !16
  tail call void @__cxa_throw(ptr nonnull %19, ptr nonnull @_ZTISt9bad_alloc, ptr nonnull @_ZNSt9bad_allocD1Ev) #25
  unreachable

20:                                               ; preds = %16
  %21 = getelementptr inbounds nuw i8, ptr %0, i64 8216
  %22 = load ptr, ptr %21, align 8, !tbaa !11
  %23 = load i64, ptr %3, align 8, !tbaa !12
  %24 = getelementptr inbounds nuw ptr, ptr %22, i64 %23
  store ptr %17, ptr %24, align 8, !tbaa !13
  %25 = add i64 %23, 1
  store i64 %25, ptr %3, align 8, !tbaa !12
  %26 = getelementptr inbounds nuw i8, ptr %0, i64 8200
  store i64 0, ptr %26, align 8, !tbaa !3
  ret void
}